target datalayout = "e-m:e-p270:32:32-p271:32:32-p272:64:64-i64:64-i128:128-f80:128-n8:16:32:64-S128"
target triple = "x86_64-pc-linux-gnu"

%struct._lv_svg_parser_t = type { i16, ptr, i32, i32, ptr, ptr }

; Function Attrs: nounwind uwtable
define zeroext i1 @_lv_svg_parser_is_finish(ptr noundef %0) #0 {
  %2 = alloca ptr, align 8
  store ptr %0, ptr %2, align 8, !tbaa !3
  br label %3

3:                                                ; preds = %1
  %4 = load ptr, ptr %2, align 8, !tbaa !3
  %5 = icmp ne ptr %4, null
  br i1 %5, label %10, label %6

6:                                                ; preds = %3
  br label %7

7:                                                ; preds = %6
  br label %8

8:                                                ; preds = %7
  br label %9

9:                                                ; preds = %8, %9
  br label %9

10:                                               ; preds = %3
  br label %11

11:                                               ; preds = %10
  %12 = load ptr, ptr %2, align 8, !tbaa !3
  %13 = getelementptr inbounds nuw %struct._lv_svg_parser_t, ptr %12, i32 0, i32 4
  %14 = load ptr, ptr %13, align 8, !tbaa !14
  %15 = icmp ne ptr %14, null
  br i1 %15, label %16, label %30

16:                                               ; preds = %11
  %17 = load ptr, ptr %2, align 8, !tbaa !3
  %18 = getelementptr inbounds nuw %struct._lv_svg_parser_t, ptr %17, i32 0, i32 5
  %19 = load ptr, ptr %18, align 8, !tbaa !15
  %20 = load ptr, ptr %2, align 8, !tbaa !3
  %21 = getelementptr inbounds nuw %struct._lv_svg_parser_t, ptr %20, i32 0, i32 4
  %22 = load ptr, ptr %21, align 8, !tbaa !14
  %23 = icmp eq ptr %19, %22
  br i1 %23, label %24, label %30

24:                                               ; preds = %16
  %25 = load ptr, ptr %2, align 8, !tbaa !3
  %26 = getelementptr inbounds nuw %struct._lv_svg_parser_t, ptr %25, i32 0, i32 0
  %27 = load i16, ptr %26, align 8, !tbaa !7
  %28 = zext i16 %27 to i32
  %29 = icmp ne i32 %28, 1
  br label %30

30:                                               ; preds = %24, %16, %11
  %31 = phi i1 [ false, %16 ], [ false, %11 ], [ %29, %24 ]
  ret i1 %31
}