; Function Attrs: nofree norecurse nosync nounwind memory(argmem: read) uwtable
define zeroext i1 @_lv_svg_parser_is_finish(ptr noundef readonly %0) local_unnamed_addr #2 {
  %.not = icmp eq ptr %0, null
  br i1 %.not, label %.preheader, label %2

.preheader:                                       ; preds = %1, %.preheader
  br label %.preheader

2:                                                ; preds = %1
  %3 = getelementptr inbounds nuw i8, ptr %0, i64 24
  %4 = load ptr, ptr %3, align 8, !tbaa !13
  %.not6 = icmp eq ptr %4, null
  br i1 %.not6, label %12, label %5

5:                                                ; preds = %2
  %6 = getelementptr inbounds nuw i8, ptr %0, i64 32
  %7 = load ptr, ptr %6, align 8, !tbaa !14
  %8 = icmp eq ptr %7, %4
  br i1 %8, label %9, label %12

9:                                                ; preds = %5
  %10 = load i16, ptr %0, align 8, !tbaa !3
  %11 = icmp ne i16 %10, 1
  br label %12

12:                                               ; preds = %9, %5, %2
  %13 = phi i1 [ false, %5 ], [ false, %2 ], [ %11, %9 ]
  ret i1 %13
}